target datalayout = "e-m:e-p270:32:32-p271:32:32-p272:64:64-i64:64-i128:128-f80:128-n8:16:32:64-S128"
target triple = "x86_64-pc-linux-gnu"

@.str.24 = private unnamed_addr constant [16 x i8] c"IDAGetLastOrder\00", align 1
@.str.25 = private unnamed_addr constant [15 x i8] c"IDAGetNumSteps\00", align 1
@.str.26 = private unnamed_addr constant [15 x i8] c"IDAGetLastStep\00", align 1
@.str.27 = private unnamed_addr constant [61 x i8] c"%8.2e %8.2e %8.2e %8.2e %8.2e %8.2e %8.2e | %3ld  %1d %8.2e\0A\00", align 1
@stderr = external global ptr, align 8
@.str.35 = private unnamed_addr constant [55 x i8] c"\0ASUNDIALS_ERROR: %s() failed - returned NULL pointer\0A\0A\00", align 1
@.str.36 = private unnamed_addr constant [48 x i8] c"\0ASUNDIALS_ERROR: %s() failed with retval = %d\0A\0A\00", align 1
@.str.37 = private unnamed_addr constant [53 x i8] c"\0AMEMORY_ERROR: %s() failed - returned NULL pointer\0A\0A\00", align 1

; Function Attrs: nounwind uwtable
define internal i32 @check_retval(ptr noundef %0, ptr noundef %1, i32 noundef %2) #0 {
  %4 = alloca i32, align 4
  %5 = alloca ptr, align 8
  %6 = alloca ptr, align 8
  %7 = alloca i32, align 4
  %8 = alloca ptr, align 8
  %9 = alloca i32, align 4
  store ptr %0, ptr %5, align 8, !tbaa !8
  store ptr %1, ptr %6, align 8, !tbaa !37
  store i32 %2, ptr %7, align 4, !tbaa !16
  call void @llvm.lifetime.start.p0(i64 8, ptr %8) #6
  %10 = load i32, ptr %7, align 4, !tbaa !16
  %11 = icmp eq i32 %10, 0
  br i1 %11, label %12, label %19

12:                                               ; preds = %3
  %13 = load ptr, ptr %5, align 8, !tbaa !8
  %14 = icmp eq ptr %13, null
  br i1 %14, label %15, label %19

15:                                               ; preds = %12
  %16 = load ptr, ptr @stderr, align 8, !tbaa !39
  %17 = load ptr, ptr %6, align 8, !tbaa !37
  %18 = call i32 (ptr, ptr, ...) @fprintf(ptr noundef %16, ptr noundef @.str.35, ptr noundef %17) #6
  store i32 1, ptr %4, align 4
  store i32 1, ptr %9, align 4
  br label %47

19:                                               ; preds = %12, %3
  %20 = load i32, ptr %7, align 4, !tbaa !16
  %21 = icmp eq i32 %20, 1
  br i1 %21, label %22, label %34

22:                                               ; preds = %19
  %23 = load ptr, ptr %5, align 8, !tbaa !8
  store ptr %23, ptr %8, align 8, !tbaa !41
  %24 = load ptr, ptr %8, align 8, !tbaa !41
  %25 = load i32, ptr %24, align 4, !tbaa !16
  %26 = icmp slt i32 %25, 0
  br i1 %26, label %27, label %33

27:                                               ; preds = %22
  %28 = load ptr, ptr @stderr, align 8, !tbaa !39
  %29 = load ptr, ptr %6, align 8, !tbaa !37
  %30 = load ptr, ptr %8, align 8, !tbaa !41
  %31 = load i32, ptr %30, align 4, !tbaa !16
  %32 = call i32 (ptr, ptr, ...) @fprintf(ptr noundef %28, ptr noundef @.str.36, ptr noundef %29, i32 noundef %31) #6
  store i32 1, ptr %4, align 4
  store i32 1, ptr %9, align 4
  br label %47

33:                                               ; preds = %22
  br label %45

34:                                               ; preds = %19
  %35 = load i32, ptr %7, align 4, !tbaa !16
  %36 = icmp eq i32 %35, 2
  br i1 %36, label %37, label %44

37:                                               ; preds = %34
  %38 = load ptr, ptr %5, align 8, !tbaa !8
  %39 = icmp eq ptr %38, null
  br i1 %39, label %40, label %44

40:                                               ; preds = %37
  %41 = load ptr, ptr @stderr, align 8, !tbaa !39
  %42 = load ptr, ptr %6, align 8, !tbaa !37
  %43 = call i32 (ptr, ptr, ...) @fprintf(ptr noundef %41, ptr noundef @.str.37, ptr noundef %42) #6
  store i32 1, ptr %4, align 4
  store i32 1, ptr %9, align 4
  br label %47

44:                                               ; preds = %37, %34
  br label %45

45:                                               ; preds = %44, %33
  br label %46

46:                                               ; preds = %45
  store i32 0, ptr %4, align 4
  store i32 1, ptr %9, align 4
  br label %47

47:                                               ; preds = %46, %40, %27, %15
  call void @llvm.lifetime.end.p0(i64 8, ptr %8) #6
  %48 = load i32, ptr %4, align 4
  ret i32 %48
}

; Function Attrs: nounwind uwtable
define internal void @PrintOutput(ptr noundef %0, double noundef %1, ptr noundef %2) #0 {
  %4 = alloca ptr, align 8
  %5 = alloca double, align 8
  %6 = alloca ptr, align 8
  %7 = alloca ptr, align 8
  %8 = alloca i32, align 4
  %9 = alloca i32, align 4
  %10 = alloca i64, align 8
  %11 = alloca double, align 8
  store ptr %0, ptr %4, align 8, !tbaa !8
  store double %1, ptr %5, align 8, !tbaa !4
  store ptr %2, ptr %6, align 8, !tbaa !10
  call void @llvm.lifetime.start.p0(i64 8, ptr %7) #6
  call void @llvm.lifetime.start.p0(i64 4, ptr %8) #6
  call void @llvm.lifetime.start.p0(i64 4, ptr %9) #6
  call void @llvm.lifetime.start.p0(i64 8, ptr %10) #6
  call void @llvm.lifetime.start.p0(i64 8, ptr %11) #6
  %12 = load ptr, ptr %6, align 8, !tbaa !10
  %13 = call ptr @N_VGetArrayPointer(ptr noundef %12)
  store ptr %13, ptr %7, align 8, !tbaa !43
  %14 = load ptr, ptr %4, align 8, !tbaa !8
  %15 = call i32 @IDAGetLastOrder(ptr noundef %14, ptr noundef %9)
  store i32 %15, ptr %8, align 4, !tbaa !16
  %16 = call i32 @check_retval(ptr noundef %8, ptr noundef @.str.24, i32 noundef 1)
  %17 = load ptr, ptr %4, align 8, !tbaa !8
  %18 = call i32 @IDAGetNumSteps(ptr noundef %17, ptr noundef %10)
  store i32 %18, ptr %8, align 4, !tbaa !16
  %19 = call i32 @check_retval(ptr noundef %8, ptr noundef @.str.25, i32 noundef 1)
  %20 = load ptr, ptr %4, align 8, !tbaa !8
  %21 = call i32 @IDAGetLastStep(ptr noundef %20, ptr noundef %11)
  store i32 %21, ptr %8, align 4, !tbaa !16
  %22 = call i32 @check_retval(ptr noundef %8, ptr noundef @.str.26, i32 noundef 1)
  %23 = load double, ptr %5, align 8, !tbaa !4
  %24 = load ptr, ptr %7, align 8, !tbaa !43
  %25 = getelementptr inbounds double, ptr %24, i64 0
  %26 = load double, ptr %25, align 8, !tbaa !4
  %27 = load ptr, ptr %7, align 8, !tbaa !43
  %28 = getelementptr inbounds double, ptr %27, i64 1
  %29 = load double, ptr %28, align 8, !tbaa !4
  %30 = load ptr, ptr %7, align 8, !tbaa !43
  %31 = getelementptr inbounds double, ptr %30, i64 2
  %32 = load double, ptr %31, align 8, !tbaa !4
  %33 = load ptr, ptr %7, align 8, !tbaa !43
  %34 = getelementptr inbounds double, ptr %33, i64 3
  %35 = load double, ptr %34, align 8, !tbaa !4
  %36 = load ptr, ptr %7, align 8, !tbaa !43
  %37 = getelementptr inbounds double, ptr %36, i64 4
  %38 = load double, ptr %37, align 8, !tbaa !4
  %39 = load ptr, ptr %7, align 8, !tbaa !43
  %40 = getelementptr inbounds double, ptr %39, i64 5
  %41 = load double, ptr %40, align 8, !tbaa !4
  %42 = load i64, ptr %10, align 8, !tbaa !44
  %43 = load i32, ptr %9, align 4, !tbaa !16
  %44 = load double, ptr %11, align 8, !tbaa !4
  %45 = call i32 (ptr, ...) @printf(ptr noundef @.str.27, double noundef %23, double noundef %26, double noundef %29, double noundef %32, double noundef %35, double noundef %38, double noundef %41, i64 noundef %42, i32 noundef %43, double noundef %44)
  call void @llvm.lifetime.end.p0(i64 8, ptr %11) #6
  call void @llvm.lifetime.end.p0(i64 8, ptr %10) #6
  call void @llvm.lifetime.end.p0(i64 4, ptr %9) #6
  call void @llvm.lifetime.end.p0(i64 4, ptr %8) #6
  call void @llvm.lifetime.end.p0(i64 8, ptr %7) #6
  ret void
}