; Function Attrs: nounwind uwtable
define internal fastcc void @PrintOutput(ptr noundef %0, double noundef %1, ptr noundef %2) unnamed_addr #0 {
  %4 = alloca i32, align 4
  %5 = alloca i64, align 8
  %6 = alloca double, align 8
  call void @llvm.lifetime.start.p0(i64 4, ptr nonnull %4) #11
  call void @llvm.lifetime.start.p0(i64 8, ptr nonnull %5) #11
  call void @llvm.lifetime.start.p0(i64 8, ptr nonnull %6) #11
  %7 = tail call ptr @N_VGetArrayPointer(ptr noundef %2) #11
  %8 = call i32 @IDAGetLastOrder(ptr noundef %0, ptr noundef nonnull %4) #11
  %9 = icmp slt i32 %8, 0
  br i1 %9, label %10, label %check_retval.exit

10:                                               ; preds = %3
  %11 = load ptr, ptr @stderr, align 8, !tbaa !4
  %12 = call i32 (ptr, ptr, ...) @fprintf(ptr noundef %11, ptr noundef nonnull @.str.36, ptr noundef nonnull @.str.24, i32 noundef %8) #12
  br label %check_retval.exit

check_retval.exit:                                ; preds = %3, %10
  %13 = call i32 @IDAGetNumSteps(ptr noundef %0, ptr noundef nonnull %5) #11
  %14 = icmp slt i32 %13, 0
  br i1 %14, label %15, label %check_retval.exit12

15:                                               ; preds = %check_retval.exit
  %16 = load ptr, ptr @stderr, align 8, !tbaa !4
  %17 = call i32 (ptr, ptr, ...) @fprintf(ptr noundef %16, ptr noundef nonnull @.str.36, ptr noundef nonnull @.str.25, i32 noundef %13) #12
  br label %check_retval.exit12

check_retval.exit12:                              ; preds = %check_retval.exit, %15
  %18 = call i32 @IDAGetLastStep(ptr noundef %0, ptr noundef nonnull %6) #11
  %19 = icmp slt i32 %18, 0
  br i1 %19, label %20, label %check_retval.exit14

20:                                               ; preds = %check_retval.exit12
  %21 = load ptr, ptr @stderr, align 8, !tbaa !4
  %22 = call i32 (ptr, ptr, ...) @fprintf(ptr noundef %21, ptr noundef nonnull @.str.36, ptr noundef nonnull @.str.26, i32 noundef %18) #12
  br label %check_retval.exit14

check_retval.exit14:                              ; preds = %check_retval.exit12, %20
  %23 = load double, ptr %7, align 8, !tbaa !30
  %24 = getelementptr inbounds nuw i8, ptr %7, i64 8
  %25 = load double, ptr %24, align 8, !tbaa !30
  %26 = getelementptr inbounds nuw i8, ptr %7, i64 16
  %27 = load double, ptr %26, align 8, !tbaa !30
  %28 = getelementptr inbounds nuw i8, ptr %7, i64 24
  %29 = load double, ptr %28, align 8, !tbaa !30
  %30 = getelementptr inbounds nuw i8, ptr %7, i64 32
  %31 = load double, ptr %30, align 8, !tbaa !30
  %32 = getelementptr inbounds nuw i8, ptr %7, i64 40
  %33 = load double, ptr %32, align 8, !tbaa !30
  %34 = load i64, ptr %5, align 8, !tbaa !33
  %35 = load i32, ptr %4, align 4, !tbaa !32
  %36 = load double, ptr %6, align 8, !tbaa !30
  %37 = call i32 (ptr, ...) @printf(ptr noundef nonnull dereferenceable(1) @.str.27, double noundef %1, double noundef %23, double noundef %25, double noundef %27, double noundef %29, double noundef %31, double noundef %33, i64 noundef %34, i32 noundef %35, double noundef %36)
  call void @llvm.lifetime.end.p0(i64 8, ptr nonnull %6) #11
  call void @llvm.lifetime.end.p0(i64 8, ptr nonnull %5) #11
  call void @llvm.lifetime.end.p0(i64 4, ptr nonnull %4) #11
  ret void
}